; Function Attrs: mustprogress uwtable
define internal fastcc noundef zeroext i1 @_ZN12_GLOBAL__N_125HandleToUpperLowerCommandERKSt6vectorINSt7__cxx1112basic_stringIcSt11char_traitsIcESaIcEEESaIS6_EEbR17cmExecutionStatus(ptr nocapture noundef nonnull readonly align 8 dereferenceable(24) %0, i1 noundef zeroext %1, ptr noundef nonnull align 8 dereferenceable(80) %2) unnamed_addr #3 personality ptr @__gxx_personality_v0 {
  %4 = alloca %"class.std::__cxx11::basic_string", align 8
  %5 = alloca %"class.std::allocator.0", align 1
  %6 = alloca %"class.std::__cxx11::basic_string", align 8
  %7 = alloca %"class.std::__cxx11::basic_string", align 8
  %8 = alloca %"class.std::__cxx11::basic_string", align 8
  %9 = getelementptr inbounds i8, ptr %0, i64 8
  %10 = load ptr, ptr %9, align 8
  %11 = load ptr, ptr %0, align 8
  %12 = ptrtoint ptr %10 to i64
  %13 = ptrtoint ptr %11 to i64
  %14 = sub i64 %12, %13
  %15 = icmp ugt i64 %14, 64
  br i1 %15, label %26, label %16

16:                                               ; preds = %3
  call void @_ZNSaIcEC1Ev(ptr noundef nonnull align 1 dereferenceable(1) %5) #20
  %17 = invoke noundef ptr @_ZNSt7__cxx1112basic_stringIcSt11char_traitsIcESaIcEE13_M_local_dataEv(ptr noundef nonnull align 8 dereferenceable(32) %4)
          to label %.noexc unwind label %22

.noexc:                                           ; preds = %16
  invoke void @_ZNSt7__cxx1112basic_stringIcSt11char_traitsIcESaIcEE12_Alloc_hiderC1EPcRKS3_(ptr noundef nonnull align 8 dereferenceable(8) %4, ptr noundef %17, ptr noundef nonnull align 1 dereferenceable(1) %5)
          to label %.noexc15 unwind label %22

.noexc15:                                         ; preds = %.noexc
  invoke void @_ZNSt7__cxx1112basic_stringIcSt11char_traitsIcESaIcEE12_M_constructIPKcEEvT_S8_St20forward_iterator_tag(ptr noundef nonnull align 8 dereferenceable(32) %4, ptr noundef nonnull @.str.53, ptr noundef nonnull getelementptr inbounds ([29 x i8], ptr @.str.53, i64 0, i64 28))
          to label %_ZNSt7__cxx1112basic_stringIcSt11char_traitsIcESaIcEEC2IS3_EEPKcRKS3_.exit unwind label %18

18:                                               ; preds = %.noexc15
  %19 = landingpad { ptr, i32 }
          cleanup
  call void @_ZNSaIcED2Ev(ptr noundef nonnull align 1 dereferenceable(1) %4) #20
  br label %.body

_ZNSt7__cxx1112basic_stringIcSt11char_traitsIcESaIcEEC2IS3_EEPKcRKS3_.exit: ; preds = %.noexc15
  %20 = getelementptr inbounds i8, ptr %2, i64 8
  %21 = invoke noundef nonnull align 8 dereferenceable(32) ptr @_ZNSt7__cxx1112basic_stringIcSt11char_traitsIcESaIcEEaSERKS4_(ptr noundef nonnull align 8 dereferenceable(32) %20, ptr noundef nonnull align 8 dereferenceable(32) %4)
          to label %_ZN17cmExecutionStatus8SetErrorERKNSt7__cxx1112basic_stringIcSt11char_traitsIcESaIcEEE.exit unwind label %24

_ZN17cmExecutionStatus8SetErrorERKNSt7__cxx1112basic_stringIcSt11char_traitsIcESaIcEEE.exit: ; preds = %_ZNSt7__cxx1112basic_stringIcSt11char_traitsIcESaIcEEC2IS3_EEPKcRKS3_.exit
  call void @_ZNSt7__cxx1112basic_stringIcSt11char_traitsIcESaIcEED1Ev(ptr noundef nonnull align 8 dereferenceable(32) %4) #20
  call void @_ZNSaIcED1Ev(ptr noundef nonnull align 1 dereferenceable(1) %5) #20
  br label %41

22:                                               ; preds = %.noexc, %16
  %23 = landingpad { ptr, i32 }
          cleanup
  br label %.body

24:                                               ; preds = %_ZNSt7__cxx1112basic_stringIcSt11char_traitsIcESaIcEEC2IS3_EEPKcRKS3_.exit
  %25 = landingpad { ptr, i32 }
          cleanup
  call void @_ZNSt7__cxx1112basic_stringIcSt11char_traitsIcESaIcEED1Ev(ptr noundef nonnull align 8 dereferenceable(32) %4) #20
  br label %.body

.body:                                            ; preds = %22, %18, %24
  %.pn = phi { ptr, i32 } [ %25, %24 ], [ %23, %22 ], [ %19, %18 ]
  call void @_ZNSaIcED1Ev(ptr noundef nonnull align 1 dereferenceable(1) %5) #20
  br label %42

26:                                               ; preds = %3
  %27 = getelementptr inbounds i8, ptr %11, i64 64
  call void @_ZNSt7__cxx1112basic_stringIcSt11char_traitsIcESaIcEEC1Ev(ptr noundef nonnull align 8 dereferenceable(32) %6) #20
  %28 = load ptr, ptr %0, align 8
  %29 = getelementptr inbounds i8, ptr %28, i64 32
  br i1 %1, label %30, label %33

30:                                               ; preds = %26
  invoke void @_ZN5cmsys11SystemTools9UpperCaseERKNSt7__cxx1112basic_stringIcSt11char_traitsIcESaIcEEE(ptr dead_on_unwind nonnull writable sret(%"class.std::__cxx11::basic_string") align 8 %7, ptr noundef nonnull align 8 dereferenceable(32) %29)
          to label %34 unwind label %31

31:                                               ; preds = %34, %33, %30
  %32 = landingpad { ptr, i32 }
          cleanup
  call void @_ZNSt7__cxx1112basic_stringIcSt11char_traitsIcESaIcEED1Ev(ptr noundef nonnull align 8 dereferenceable(32) %6) #20
  br label %42

33:                                               ; preds = %26
  invoke void @_ZN5cmsys11SystemTools9LowerCaseERKNSt7__cxx1112basic_stringIcSt11char_traitsIcESaIcEEE(ptr dead_on_unwind nonnull writable sret(%"class.std::__cxx11::basic_string") align 8 %8, ptr noundef nonnull align 8 dereferenceable(32) %29)
          to label %34 unwind label %31

34:                                               ; preds = %33, %30
  %.sink17 = phi ptr [ %7, %30 ], [ %8, %33 ]
  %35 = call noundef nonnull align 8 dereferenceable(32) ptr @_ZNSt7__cxx1112basic_stringIcSt11char_traitsIcESaIcEEaSEOS4_(ptr noundef nonnull align 8 dereferenceable(32) %6, ptr noundef nonnull align 8 dereferenceable(32) %.sink17) #20
  call void @_ZNSt7__cxx1112basic_stringIcSt11char_traitsIcESaIcEED1Ev(ptr noundef nonnull align 8 dereferenceable(32) %.sink17) #20
  %36 = load ptr, ptr %2, align 8
  %37 = call { i64, ptr } @_ZNKSt7__cxx1112basic_stringIcSt11char_traitsIcESaIcEEcvSt17basic_string_viewIcS2_EEv(ptr noundef nonnull align 8 dereferenceable(32) %6) #20
  %38 = extractvalue { i64, ptr } %37, 0
  %39 = extractvalue { i64, ptr } %37, 1
  invoke void @_ZN10cmMakefile13AddDefinitionERKNSt7__cxx1112basic_stringIcSt11char_traitsIcESaIcEEESt17basic_string_viewIcS3_E(ptr noundef nonnull align 8 dereferenceable(3520) %36, ptr noundef nonnull align 8 dereferenceable(32) %27, i64 %38, ptr %39)
          to label %40 unwind label %31

40:                                               ; preds = %34
  call void @_ZNSt7__cxx1112basic_stringIcSt11char_traitsIcESaIcEED1Ev(ptr noundef nonnull align 8 dereferenceable(32) %6) #20
  br label %41

41:                                               ; preds = %40, %_ZN17cmExecutionStatus8SetErrorERKNSt7__cxx1112basic_stringIcSt11char_traitsIcESaIcEEE.exit
  ret i1 %15

42:                                               ; preds = %31, %.body
  %.pn.pn = phi { ptr, i32 } [ %.pn, %.body ], [ %32, %31 ]
  resume { ptr, i32 } %.pn.pn
}